target datalayout = "e-m:e-p270:32:32-p271:32:32-p272:64:64-i64:64-i128:128-f80:128-n8:16:32:64-S128"
target triple = "x86_64-pc-linux-gnu"

%struct.lua_TValue = type { %union.Value, i32 }
%union.Value = type { ptr }
%struct.Table = type { ptr, i8, i8, i8, i32, i8, ptr, ptr, ptr, ptr, ptr, i32 }
%struct.lua_State = type { ptr, i8, i8, i8, ptr, ptr, ptr, ptr, ptr, ptr, ptr, ptr, ptr, i32, i32, i16, i16, i8, i8, i32, i32, ptr, %struct.lua_TValue, %struct.lua_TValue, ptr, ptr, ptr, i64 }
%struct.global_State = type { %struct.stringtable, ptr, ptr, i8, i8, i32, ptr, ptr, ptr, ptr, ptr, ptr, %struct.Mbuffer, i64, i64, i64, i64, i32, i32, ptr, %struct.lua_TValue, ptr, %struct.UpVal, [9 x ptr], [17 x ptr] }
%struct.stringtable = type { ptr, i32, i32 }
%struct.Mbuffer = type { ptr, i64, i64 }
%struct.UpVal = type { ptr, i8, i8, ptr, %union.anon }
%union.anon = type { %struct.lua_TValue }
%struct.GCheader = type { ptr, i8, i8 }

@.str.1 = private unnamed_addr constant [6 x i8] c"index\00", align 1
@.str.3 = private unnamed_addr constant [35 x i8] c"Attempt to modify a readonly table\00", align 1
@.str.4 = private unnamed_addr constant [17 x i8] c"loop in settable\00", align 1

; Function Attrs: nounwind uwtable
define internal void @callTM(ptr noundef %0, ptr noundef %1, ptr noundef %2, ptr noundef %3, ptr noundef %4) #0 {
  %6 = alloca ptr, align 8
  %7 = alloca ptr, align 8
  %8 = alloca ptr, align 8
  %9 = alloca ptr, align 8
  %10 = alloca ptr, align 8
  %11 = alloca ptr, align 8
  %12 = alloca ptr, align 8
  %13 = alloca ptr, align 8
  %14 = alloca ptr, align 8
  %15 = alloca ptr, align 8
  %16 = alloca ptr, align 8
  %17 = alloca ptr, align 8
  %18 = alloca ptr, align 8
  store ptr %0, ptr %6, align 8, !tbaa !15
  store ptr %1, ptr %7, align 8, !tbaa !4
  store ptr %2, ptr %8, align 8, !tbaa !4
  store ptr %3, ptr %9, align 8, !tbaa !4
  store ptr %4, ptr %10, align 8, !tbaa !4
  call void @llvm.lifetime.start.p0(i64 8, ptr %11) #7
  %19 = load ptr, ptr %7, align 8, !tbaa !4
  store ptr %19, ptr %11, align 8, !tbaa !4
  call void @llvm.lifetime.start.p0(i64 8, ptr %12) #7
  %20 = load ptr, ptr %6, align 8, !tbaa !15
  %21 = getelementptr inbounds nuw %struct.lua_State, ptr %20, i32 0, i32 4
  %22 = load ptr, ptr %21, align 8, !tbaa !40
  store ptr %22, ptr %12, align 8, !tbaa !4
  %23 = load ptr, ptr %12, align 8, !tbaa !4
  %24 = getelementptr inbounds nuw %struct.lua_TValue, ptr %23, i32 0, i32 0
  %25 = load ptr, ptr %11, align 8, !tbaa !4
  %26 = getelementptr inbounds nuw %struct.lua_TValue, ptr %25, i32 0, i32 0
  call void @llvm.memcpy.p0.p0.i64(ptr align 8 %24, ptr align 8 %26, i64 8, i1 false), !tbaa.struct !35
  %27 = load ptr, ptr %11, align 8, !tbaa !4
  %28 = getelementptr inbounds nuw %struct.lua_TValue, ptr %27, i32 0, i32 1
  %29 = load i32, ptr %28, align 8, !tbaa !9
  %30 = load ptr, ptr %12, align 8, !tbaa !4
  %31 = getelementptr inbounds nuw %struct.lua_TValue, ptr %30, i32 0, i32 1
  store i32 %29, ptr %31, align 8, !tbaa !9
  call void @llvm.lifetime.end.p0(i64 8, ptr %12) #7
  call void @llvm.lifetime.end.p0(i64 8, ptr %11) #7
  call void @llvm.lifetime.start.p0(i64 8, ptr %13) #7
  %32 = load ptr, ptr %8, align 8, !tbaa !4
  store ptr %32, ptr %13, align 8, !tbaa !4
  call void @llvm.lifetime.start.p0(i64 8, ptr %14) #7
  %33 = load ptr, ptr %6, align 8, !tbaa !15
  %34 = getelementptr inbounds nuw %struct.lua_State, ptr %33, i32 0, i32 4
  %35 = load ptr, ptr %34, align 8, !tbaa !40
  %36 = getelementptr inbounds %struct.lua_TValue, ptr %35, i64 1
  store ptr %36, ptr %14, align 8, !tbaa !4
  %37 = load ptr, ptr %14, align 8, !tbaa !4
  %38 = getelementptr inbounds nuw %struct.lua_TValue, ptr %37, i32 0, i32 0
  %39 = load ptr, ptr %13, align 8, !tbaa !4
  %40 = getelementptr inbounds nuw %struct.lua_TValue, ptr %39, i32 0, i32 0
  call void @llvm.memcpy.p0.p0.i64(ptr align 8 %38, ptr align 8 %40, i64 8, i1 false), !tbaa.struct !35
  %41 = load ptr, ptr %13, align 8, !tbaa !4
  %42 = getelementptr inbounds nuw %struct.lua_TValue, ptr %41, i32 0, i32 1
  %43 = load i32, ptr %42, align 8, !tbaa !9
  %44 = load ptr, ptr %14, align 8, !tbaa !4
  %45 = getelementptr inbounds nuw %struct.lua_TValue, ptr %44, i32 0, i32 1
  store i32 %43, ptr %45, align 8, !tbaa !9
  call void @llvm.lifetime.end.p0(i64 8, ptr %14) #7
  call void @llvm.lifetime.end.p0(i64 8, ptr %13) #7
  call void @llvm.lifetime.start.p0(i64 8, ptr %15) #7
  %46 = load ptr, ptr %9, align 8, !tbaa !4
  store ptr %46, ptr %15, align 8, !tbaa !4
  call void @llvm.lifetime.start.p0(i64 8, ptr %16) #7
  %47 = load ptr, ptr %6, align 8, !tbaa !15
  %48 = getelementptr inbounds nuw %struct.lua_State, ptr %47, i32 0, i32 4
  %49 = load ptr, ptr %48, align 8, !tbaa !40
  %50 = getelementptr inbounds %struct.lua_TValue, ptr %49, i64 2
  store ptr %50, ptr %16, align 8, !tbaa !4
  %51 = load ptr, ptr %16, align 8, !tbaa !4
  %52 = getelementptr inbounds nuw %struct.lua_TValue, ptr %51, i32 0, i32 0
  %53 = load ptr, ptr %15, align 8, !tbaa !4
  %54 = getelementptr inbounds nuw %struct.lua_TValue, ptr %53, i32 0, i32 0
  call void @llvm.memcpy.p0.p0.i64(ptr align 8 %52, ptr align 8 %54, i64 8, i1 false), !tbaa.struct !35
  %55 = load ptr, ptr %15, align 8, !tbaa !4
  %56 = getelementptr inbounds nuw %struct.lua_TValue, ptr %55, i32 0, i32 1
  %57 = load i32, ptr %56, align 8, !tbaa !9
  %58 = load ptr, ptr %16, align 8, !tbaa !4
  %59 = getelementptr inbounds nuw %struct.lua_TValue, ptr %58, i32 0, i32 1
  store i32 %57, ptr %59, align 8, !tbaa !9
  call void @llvm.lifetime.end.p0(i64 8, ptr %16) #7
  call void @llvm.lifetime.end.p0(i64 8, ptr %15) #7
  call void @llvm.lifetime.start.p0(i64 8, ptr %17) #7
  %60 = load ptr, ptr %10, align 8, !tbaa !4
  store ptr %60, ptr %17, align 8, !tbaa !4
  call void @llvm.lifetime.start.p0(i64 8, ptr %18) #7
  %61 = load ptr, ptr %6, align 8, !tbaa !15
  %62 = getelementptr inbounds nuw %struct.lua_State, ptr %61, i32 0, i32 4
  %63 = load ptr, ptr %62, align 8, !tbaa !40
  %64 = getelementptr inbounds %struct.lua_TValue, ptr %63, i64 3
  store ptr %64, ptr %18, align 8, !tbaa !4
  %65 = load ptr, ptr %18, align 8, !tbaa !4
  %66 = getelementptr inbounds nuw %struct.lua_TValue, ptr %65, i32 0, i32 0
  %67 = load ptr, ptr %17, align 8, !tbaa !4
  %68 = getelementptr inbounds nuw %struct.lua_TValue, ptr %67, i32 0, i32 0
  call void @llvm.memcpy.p0.p0.i64(ptr align 8 %66, ptr align 8 %68, i64 8, i1 false), !tbaa.struct !35
  %69 = load ptr, ptr %17, align 8, !tbaa !4
  %70 = getelementptr inbounds nuw %struct.lua_TValue, ptr %69, i32 0, i32 1
  %71 = load i32, ptr %70, align 8, !tbaa !9
  %72 = load ptr, ptr %18, align 8, !tbaa !4
  %73 = getelementptr inbounds nuw %struct.lua_TValue, ptr %72, i32 0, i32 1
  store i32 %71, ptr %73, align 8, !tbaa !9
  call void @llvm.lifetime.end.p0(i64 8, ptr %18) #7
  call void @llvm.lifetime.end.p0(i64 8, ptr %17) #7
  %74 = load ptr, ptr %6, align 8, !tbaa !15
  %75 = getelementptr inbounds nuw %struct.lua_State, ptr %74, i32 0, i32 9
  %76 = load ptr, ptr %75, align 8, !tbaa !41
  %77 = load ptr, ptr %6, align 8, !tbaa !15
  %78 = getelementptr inbounds nuw %struct.lua_State, ptr %77, i32 0, i32 4
  %79 = load ptr, ptr %78, align 8, !tbaa !40
  %80 = ptrtoint ptr %76 to i64
  %81 = ptrtoint ptr %79 to i64
  %82 = sub i64 %80, %81
  %83 = icmp sle i64 %82, 64
  br i1 %83, label %84, label %86

84:                                               ; preds = %5
  %85 = load ptr, ptr %6, align 8, !tbaa !15
  call void @luaD_growstack(ptr noundef %85, i32 noundef 4)
  br label %87

86:                                               ; preds = %5
  br label %87

87:                                               ; preds = %86, %84
  %88 = load ptr, ptr %6, align 8, !tbaa !15
  %89 = getelementptr inbounds nuw %struct.lua_State, ptr %88, i32 0, i32 4
  %90 = load ptr, ptr %89, align 8, !tbaa !40
  %91 = getelementptr inbounds %struct.lua_TValue, ptr %90, i64 4
  store ptr %91, ptr %89, align 8, !tbaa !40
  %92 = load ptr, ptr %6, align 8, !tbaa !15
  %93 = load ptr, ptr %6, align 8, !tbaa !15
  %94 = getelementptr inbounds nuw %struct.lua_State, ptr %93, i32 0, i32 4
  %95 = load ptr, ptr %94, align 8, !tbaa !40
  %96 = getelementptr inbounds %struct.lua_TValue, ptr %95, i64 -4
  call void @luaD_call(ptr noundef %92, ptr noundef %96, i32 noundef 0)
  ret void
}

; Function Attrs: nounwind uwtable
define hidden void @luaV_settable(ptr noundef %0, ptr noundef %1, ptr noundef %2, ptr noundef %3) #0 {
  %5 = alloca ptr, align 8
  %6 = alloca ptr, align 8
  %7 = alloca ptr, align 8
  %8 = alloca ptr, align 8
  %9 = alloca i32, align 4
  %10 = alloca %struct.lua_TValue, align 8
  %11 = alloca ptr, align 8
  %12 = alloca ptr, align 8
  %13 = alloca ptr, align 8
  %14 = alloca ptr, align 8
  %15 = alloca ptr, align 8
  %16 = alloca i32, align 4
  %17 = alloca ptr, align 8
  %18 = alloca ptr, align 8
  store ptr %0, ptr %5, align 8, !tbaa !15
  store ptr %1, ptr %6, align 8, !tbaa !4
  store ptr %2, ptr %7, align 8, !tbaa !4
  store ptr %3, ptr %8, align 8, !tbaa !4
  call void @llvm.lifetime.start.p0(i64 4, ptr %9) #7
  call void @llvm.lifetime.start.p0(i64 16, ptr %10) #7
  store i32 0, ptr %9, align 4, !tbaa !17
  br label %19

19:                                               ; preds = %156, %4
  %20 = load i32, ptr %9, align 4, !tbaa !17
  %21 = icmp slt i32 %20, 100
  br i1 %21, label %22, label %159

22:                                               ; preds = %19
  call void @llvm.lifetime.start.p0(i64 8, ptr %11) #7
  %23 = load ptr, ptr %6, align 8, !tbaa !4
  %24 = getelementptr inbounds nuw %struct.lua_TValue, ptr %23, i32 0, i32 1
  %25 = load i32, ptr %24, align 8, !tbaa !9
  %26 = icmp eq i32 %25, 5
  br i1 %26, label %27, label %120

27:                                               ; preds = %22
  call void @llvm.lifetime.start.p0(i64 8, ptr %12) #7
  %28 = load ptr, ptr %6, align 8, !tbaa !4
  %29 = getelementptr inbounds nuw %struct.lua_TValue, ptr %28, i32 0, i32 0
  %30 = load ptr, ptr %29, align 8, !tbaa !12
  store ptr %30, ptr %12, align 8, !tbaa !18
  %31 = load ptr, ptr %12, align 8, !tbaa !18
  %32 = getelementptr inbounds nuw %struct.Table, ptr %31, i32 0, i32 4
  %33 = load i32, ptr %32, align 4, !tbaa !42
  %34 = icmp ne i32 %33, 0
  br i1 %34, label %35, label %37

35:                                               ; preds = %27
  %36 = load ptr, ptr %5, align 8, !tbaa !15
  call void (ptr, ptr, ...) @luaG_runerror(ptr noundef %36, ptr noundef @.str.3)
  br label %37

37:                                               ; preds = %35, %27
  call void @llvm.lifetime.start.p0(i64 8, ptr %13) #7
  %38 = load ptr, ptr %5, align 8, !tbaa !15
  %39 = load ptr, ptr %12, align 8, !tbaa !18
  %40 = load ptr, ptr %7, align 8, !tbaa !4
  %41 = call ptr @luaH_set(ptr noundef %38, ptr noundef %39, ptr noundef %40)
  store ptr %41, ptr %13, align 8, !tbaa !4
  %42 = load ptr, ptr %13, align 8, !tbaa !4
  %43 = getelementptr inbounds nuw %struct.lua_TValue, ptr %42, i32 0, i32 1
  %44 = load i32, ptr %43, align 8, !tbaa !9
  %45 = icmp eq i32 %44, 0
  br i1 %45, label %46, label %78

46:                                               ; preds = %37
  %47 = load ptr, ptr %12, align 8, !tbaa !18
  %48 = getelementptr inbounds nuw %struct.Table, ptr %47, i32 0, i32 6
  %49 = load ptr, ptr %48, align 8, !tbaa !20
  %50 = icmp eq ptr %49, null
  br i1 %50, label %51, label %52

51:                                               ; preds = %46
  br label %75

52:                                               ; preds = %46
  %53 = load ptr, ptr %12, align 8, !tbaa !18
  %54 = getelementptr inbounds nuw %struct.Table, ptr %53, i32 0, i32 6
  %55 = load ptr, ptr %54, align 8, !tbaa !20
  %56 = getelementptr inbounds nuw %struct.Table, ptr %55, i32 0, i32 3
  %57 = load i8, ptr %56, align 2, !tbaa !24
  %58 = zext i8 %57 to i32
  %59 = and i32 %58, 2
  %60 = icmp ne i32 %59, 0
  br i1 %60, label %61, label %62

61:                                               ; preds = %52
  br label %73

62:                                               ; preds = %52
  %63 = load ptr, ptr %12, align 8, !tbaa !18
  %64 = getelementptr inbounds nuw %struct.Table, ptr %63, i32 0, i32 6
  %65 = load ptr, ptr %64, align 8, !tbaa !20
  %66 = load ptr, ptr %5, align 8, !tbaa !15
  %67 = getelementptr inbounds nuw %struct.lua_State, ptr %66, i32 0, i32 6
  %68 = load ptr, ptr %67, align 8, !tbaa !25
  %69 = getelementptr inbounds nuw %struct.global_State, ptr %68, i32 0, i32 24
  %70 = getelementptr inbounds [17 x ptr], ptr %69, i64 0, i64 1
  %71 = load ptr, ptr %70, align 8, !tbaa !33
  %72 = call ptr @luaT_gettm(ptr noundef %65, i32 noundef 1, ptr noundef %71)
  br label %73

73:                                               ; preds = %62, %61
  %74 = phi ptr [ null, %61 ], [ %72, %62 ]
  br label %75

75:                                               ; preds = %73, %51
  %76 = phi ptr [ null, %51 ], [ %74, %73 ]
  store ptr %76, ptr %11, align 8, !tbaa !4
  %77 = icmp eq ptr %76, null
  br i1 %77, label %78, label %116

78:                                               ; preds = %75, %37
  call void @llvm.lifetime.start.p0(i64 8, ptr %14) #7
  %79 = load ptr, ptr %8, align 8, !tbaa !4
  store ptr %79, ptr %14, align 8, !tbaa !4
  call void @llvm.lifetime.start.p0(i64 8, ptr %15) #7
  %80 = load ptr, ptr %13, align 8, !tbaa !4
  store ptr %80, ptr %15, align 8, !tbaa !4
  %81 = load ptr, ptr %15, align 8, !tbaa !4
  %82 = getelementptr inbounds nuw %struct.lua_TValue, ptr %81, i32 0, i32 0
  %83 = load ptr, ptr %14, align 8, !tbaa !4
  %84 = getelementptr inbounds nuw %struct.lua_TValue, ptr %83, i32 0, i32 0
  call void @llvm.memcpy.p0.p0.i64(ptr align 8 %82, ptr align 8 %84, i64 8, i1 false), !tbaa.struct !35
  %85 = load ptr, ptr %14, align 8, !tbaa !4
  %86 = getelementptr inbounds nuw %struct.lua_TValue, ptr %85, i32 0, i32 1
  %87 = load i32, ptr %86, align 8, !tbaa !9
  %88 = load ptr, ptr %15, align 8, !tbaa !4
  %89 = getelementptr inbounds nuw %struct.lua_TValue, ptr %88, i32 0, i32 1
  store i32 %87, ptr %89, align 8, !tbaa !9
  call void @llvm.lifetime.end.p0(i64 8, ptr %15) #7
  call void @llvm.lifetime.end.p0(i64 8, ptr %14) #7
  %90 = load ptr, ptr %12, align 8, !tbaa !18
  %91 = getelementptr inbounds nuw %struct.Table, ptr %90, i32 0, i32 3
  store i8 0, ptr %91, align 2, !tbaa !24
  %92 = load ptr, ptr %8, align 8, !tbaa !4
  %93 = getelementptr inbounds nuw %struct.lua_TValue, ptr %92, i32 0, i32 1
  %94 = load i32, ptr %93, align 8, !tbaa !9
  %95 = icmp sge i32 %94, 4
  br i1 %95, label %96, label %115

96:                                               ; preds = %78
  %97 = load ptr, ptr %8, align 8, !tbaa !4
  %98 = getelementptr inbounds nuw %struct.lua_TValue, ptr %97, i32 0, i32 0
  %99 = load ptr, ptr %98, align 8, !tbaa !12
  %100 = getelementptr inbounds nuw %struct.GCheader, ptr %99, i32 0, i32 2
  %101 = load i8, ptr %100, align 1, !tbaa !12
  %102 = zext i8 %101 to i32
  %103 = and i32 %102, 3
  %104 = icmp ne i32 %103, 0
  br i1 %104, label %105, label %115

105:                                              ; preds = %96
  %106 = load ptr, ptr %12, align 8, !tbaa !18
  %107 = getelementptr inbounds nuw %struct.GCheader, ptr %106, i32 0, i32 2
  %108 = load i8, ptr %107, align 1, !tbaa !12
  %109 = zext i8 %108 to i32
  %110 = and i32 %109, 4
  %111 = icmp ne i32 %110, 0
  br i1 %111, label %112, label %115

112:                                              ; preds = %105
  %113 = load ptr, ptr %5, align 8, !tbaa !15
  %114 = load ptr, ptr %12, align 8, !tbaa !18
  call void @luaC_barrierback(ptr noundef %113, ptr noundef %114)
  br label %115

115:                                              ; preds = %112, %105, %96, %78
  store i32 1, ptr %16, align 4
  br label %117

116:                                              ; preds = %75
  store i32 0, ptr %16, align 4
  br label %117

117:                                              ; preds = %116, %115
  call void @llvm.lifetime.end.p0(i64 8, ptr %13) #7
  call void @llvm.lifetime.end.p0(i64 8, ptr %12) #7
  %118 = load i32, ptr %16, align 4
  switch i32 %118, label %153 [
    i32 0, label %119
  ]

119:                                              ; preds = %117
  br label %131

120:                                              ; preds = %22
  %121 = load ptr, ptr %5, align 8, !tbaa !15
  %122 = load ptr, ptr %6, align 8, !tbaa !4
  %123 = call ptr @luaT_gettmbyobj(ptr noundef %121, ptr noundef %122, i32 noundef 1)
  store ptr %123, ptr %11, align 8, !tbaa !4
  %124 = getelementptr inbounds nuw %struct.lua_TValue, ptr %123, i32 0, i32 1
  %125 = load i32, ptr %124, align 8, !tbaa !9
  %126 = icmp eq i32 %125, 0
  br i1 %126, label %127, label %130

127:                                              ; preds = %120
  %128 = load ptr, ptr %5, align 8, !tbaa !15
  %129 = load ptr, ptr %6, align 8, !tbaa !4
  call void @luaG_typeerror(ptr noundef %128, ptr noundef %129, ptr noundef @.str.1)
  br label %130

130:                                              ; preds = %127, %120
  br label %131

131:                                              ; preds = %130, %119
  %132 = load ptr, ptr %11, align 8, !tbaa !4
  %133 = getelementptr inbounds nuw %struct.lua_TValue, ptr %132, i32 0, i32 1
  %134 = load i32, ptr %133, align 8, !tbaa !9
  %135 = icmp eq i32 %134, 6
  br i1 %135, label %136, label %142

136:                                              ; preds = %131
  %137 = load ptr, ptr %5, align 8, !tbaa !15
  %138 = load ptr, ptr %11, align 8, !tbaa !4
  %139 = load ptr, ptr %6, align 8, !tbaa !4
  %140 = load ptr, ptr %7, align 8, !tbaa !4
  %141 = load ptr, ptr %8, align 8, !tbaa !4
  call void @callTM(ptr noundef %137, ptr noundef %138, ptr noundef %139, ptr noundef %140, ptr noundef %141)
  store i32 1, ptr %16, align 4
  br label %153

142:                                              ; preds = %131
  call void @llvm.lifetime.start.p0(i64 8, ptr %17) #7
  %143 = load ptr, ptr %11, align 8, !tbaa !4
  store ptr %143, ptr %17, align 8, !tbaa !4
  call void @llvm.lifetime.start.p0(i64 8, ptr %18) #7
  store ptr %10, ptr %18, align 8, !tbaa !4
  %144 = load ptr, ptr %18, align 8, !tbaa !4
  %145 = getelementptr inbounds nuw %struct.lua_TValue, ptr %144, i32 0, i32 0
  %146 = load ptr, ptr %17, align 8, !tbaa !4
  %147 = getelementptr inbounds nuw %struct.lua_TValue, ptr %146, i32 0, i32 0
  call void @llvm.memcpy.p0.p0.i64(ptr align 8 %145, ptr align 8 %147, i64 8, i1 false), !tbaa.struct !35
  %148 = load ptr, ptr %17, align 8, !tbaa !4
  %149 = getelementptr inbounds nuw %struct.lua_TValue, ptr %148, i32 0, i32 1
  %150 = load i32, ptr %149, align 8, !tbaa !9
  %151 = load ptr, ptr %18, align 8, !tbaa !4
  %152 = getelementptr inbounds nuw %struct.lua_TValue, ptr %151, i32 0, i32 1
  store i32 %150, ptr %152, align 8, !tbaa !9
  call void @llvm.lifetime.end.p0(i64 8, ptr %18) #7
  call void @llvm.lifetime.end.p0(i64 8, ptr %17) #7
  store ptr %10, ptr %6, align 8, !tbaa !4
  store i32 0, ptr %16, align 4
  br label %153

153:                                              ; preds = %142, %136, %117
  call void @llvm.lifetime.end.p0(i64 8, ptr %11) #7
  %154 = load i32, ptr %16, align 4
  switch i32 %154, label %161 [
    i32 0, label %155
  ]

155:                                              ; preds = %153
  br label %156

156:                                              ; preds = %155
  %157 = load i32, ptr %9, align 4, !tbaa !17
  %158 = add nsw i32 %157, 1
  store i32 %158, ptr %9, align 4, !tbaa !17
  br label %19, !llvm.loop !43

159:                                              ; preds = %19
  %160 = load ptr, ptr %5, align 8, !tbaa !15
  call void (ptr, ptr, ...) @luaG_runerror(ptr noundef %160, ptr noundef @.str.4)
  store i32 0, ptr %16, align 4
  br label %161

161:                                              ; preds = %159, %153
  call void @llvm.lifetime.end.p0(i64 16, ptr %10) #7
  call void @llvm.lifetime.end.p0(i64 4, ptr %9) #7
  %162 = load i32, ptr %16, align 4
  switch i32 %162, label %164 [
    i32 0, label %163
    i32 1, label %163
  ]

163:                                              ; preds = %161, %161
  ret void

164:                                              ; preds = %161
  unreachable
}