; Function Attrs: nounwind uwtable
define hidden void @luaV_settable(ptr noundef %0, ptr noundef %1, ptr noundef %2, ptr noundef readonly captures(none) %3) local_unnamed_addr #0 {
  %5 = alloca %struct.lua_TValue, align 8
  call void @llvm.lifetime.start.p0(i64 16, ptr nonnull %5) #9
  %6 = getelementptr inbounds nuw i8, ptr %0, i64 32
  %7 = getelementptr inbounds nuw i8, ptr %5, i64 8
  %.074.sroa.gep = getelementptr inbounds nuw i8, ptr %1, i64 8
  %.pre = load i32, ptr %.074.sroa.gep, align 8, !tbaa !4
  br label %8

8:                                                ; preds = %4, %96
  %9 = phi i32 [ %.pre, %4 ], [ %59, %96 ]
  %.074 = phi ptr [ %1, %4 ], [ %5, %96 ]
  %.04473 = phi i32 [ 0, %4 ], [ %98, %96 ]
  %10 = icmp eq i32 %9, 5
  br i1 %10, label %11, label %51

11:                                               ; preds = %8
  %12 = load ptr, ptr %.074, align 8, !tbaa !9
  %13 = getelementptr inbounds nuw i8, ptr %12, i64 12
  %14 = load i32, ptr %13, align 4, !tbaa !35
  %.not = icmp eq i32 %14, 0
  br i1 %.not, label %16, label %15

15:                                               ; preds = %11
  call void (ptr, ptr, ...) @luaG_runerror(ptr noundef %0, ptr noundef nonnull @.str.3) #9
  br label %16

16:                                               ; preds = %15, %11
  %17 = call ptr @luaH_set(ptr noundef %0, ptr noundef nonnull %12, ptr noundef %2) #9
  %18 = getelementptr inbounds nuw i8, ptr %17, i64 8
  %19 = load i32, ptr %18, align 8, !tbaa !4
  %20 = icmp eq i32 %19, 0
  br i1 %20, label %21, label %.thread

21:                                               ; preds = %16
  %22 = getelementptr inbounds nuw i8, ptr %12, i64 24
  %23 = load ptr, ptr %22, align 8, !tbaa !14
  %24 = icmp eq ptr %23, null
  br i1 %24, label %.thread, label %25

25:                                               ; preds = %21
  %26 = getelementptr inbounds nuw i8, ptr %23, i64 10
  %27 = load i8, ptr %26, align 2, !tbaa !21
  %28 = and i8 %27, 2
  %.not52 = icmp eq i8 %28, 0
  br i1 %.not52, label %29, label %.thread

29:                                               ; preds = %25
  %30 = load ptr, ptr %6, align 8, !tbaa !22
  %31 = getelementptr inbounds nuw i8, ptr %30, i64 304
  %32 = load ptr, ptr %31, align 8, !tbaa !30
  %33 = call ptr @luaT_gettm(ptr noundef nonnull %23, i32 noundef 1, ptr noundef %32) #9
  %34 = icmp eq ptr %33, null
  br i1 %34, label %.thread, label %57

.thread:                                          ; preds = %25, %21, %29, %16
  %35 = getelementptr inbounds nuw i8, ptr %17, i64 8
  %36 = load i64, ptr %3, align 8, !tbaa !9
  store i64 %36, ptr %17, align 8, !tbaa !9
  %37 = getelementptr inbounds nuw i8, ptr %3, i64 8
  %38 = load i32, ptr %37, align 8, !tbaa !4
  store i32 %38, ptr %35, align 8, !tbaa !4
  %39 = getelementptr inbounds nuw i8, ptr %12, i64 10
  store i8 0, ptr %39, align 2, !tbaa !21
  %40 = icmp sgt i32 %38, 3
  br i1 %40, label %41, label %.thread60

41:                                               ; preds = %.thread
  %42 = load ptr, ptr %3, align 8, !tbaa !9
  %43 = getelementptr inbounds nuw i8, ptr %42, i64 9
  %44 = load i8, ptr %43, align 1, !tbaa !9
  %45 = and i8 %44, 3
  %.not53 = icmp eq i8 %45, 0
  br i1 %.not53, label %.thread60, label %46

46:                                               ; preds = %41
  %47 = getelementptr inbounds nuw i8, ptr %12, i64 9
  %48 = load i8, ptr %47, align 1, !tbaa !9
  %49 = and i8 %48, 4
  %.not54 = icmp eq i8 %49, 0
  br i1 %.not54, label %.thread60, label %50

50:                                               ; preds = %46
  call void @luaC_barrierback(ptr noundef %0, ptr noundef nonnull %12) #9
  br label %.thread60

51:                                               ; preds = %8
  %52 = call ptr @luaT_gettmbyobj(ptr noundef %0, ptr noundef nonnull %.074, i32 noundef 1) #9
  %53 = getelementptr inbounds nuw i8, ptr %52, i64 8
  %54 = load i32, ptr %53, align 8, !tbaa !4
  %55 = icmp eq i32 %54, 0
  br i1 %55, label %56, label %57

56:                                               ; preds = %51
  call void @luaG_typeerror(ptr noundef %0, ptr noundef nonnull %.074, ptr noundef nonnull @.str.1) #9
  br label %57

57:                                               ; preds = %29, %51, %56
  %.4 = phi ptr [ %52, %56 ], [ %52, %51 ], [ %33, %29 ]
  %58 = getelementptr inbounds nuw i8, ptr %.4, i64 8
  %59 = load i32, ptr %58, align 8, !tbaa !4
  %60 = icmp eq i32 %59, 6
  br i1 %60, label %61, label %96

61:                                               ; preds = %57
  %62 = getelementptr inbounds nuw i8, ptr %.4, i64 8
  %63 = getelementptr inbounds nuw i8, ptr %.074, i64 8
  %64 = getelementptr inbounds nuw i8, ptr %0, i64 16
  %65 = load ptr, ptr %64, align 8, !tbaa !33
  %66 = load i64, ptr %.4, align 8, !tbaa !9
  store i64 %66, ptr %65, align 8, !tbaa !9
  %67 = load i32, ptr %62, align 8, !tbaa !4
  %68 = getelementptr inbounds nuw i8, ptr %65, i64 8
  store i32 %67, ptr %68, align 8, !tbaa !4
  %69 = load ptr, ptr %64, align 8, !tbaa !33
  %70 = getelementptr inbounds nuw i8, ptr %69, i64 16
  %71 = load i64, ptr %.074, align 8, !tbaa !9
  store i64 %71, ptr %70, align 8, !tbaa !9
  %72 = load i32, ptr %63, align 8, !tbaa !4
  %73 = getelementptr inbounds nuw i8, ptr %69, i64 24
  store i32 %72, ptr %73, align 8, !tbaa !4
  %74 = load ptr, ptr %64, align 8, !tbaa !33
  %75 = getelementptr inbounds nuw i8, ptr %74, i64 32
  %76 = load i64, ptr %2, align 8, !tbaa !9
  store i64 %76, ptr %75, align 8, !tbaa !9
  %77 = getelementptr inbounds nuw i8, ptr %2, i64 8
  %78 = load i32, ptr %77, align 8, !tbaa !4
  %79 = getelementptr inbounds nuw i8, ptr %74, i64 40
  store i32 %78, ptr %79, align 8, !tbaa !4
  %80 = load ptr, ptr %64, align 8, !tbaa !33
  %81 = getelementptr inbounds nuw i8, ptr %80, i64 48
  %82 = load i64, ptr %3, align 8, !tbaa !9
  store i64 %82, ptr %81, align 8, !tbaa !9
  %83 = getelementptr inbounds nuw i8, ptr %3, i64 8
  %84 = load i32, ptr %83, align 8, !tbaa !4
  %85 = getelementptr inbounds nuw i8, ptr %80, i64 56
  store i32 %84, ptr %85, align 8, !tbaa !4
  %86 = getelementptr inbounds nuw i8, ptr %0, i64 56
  %87 = load ptr, ptr %86, align 8, !tbaa !34
  %88 = load ptr, ptr %64, align 8, !tbaa !33
  %89 = ptrtoint ptr %87 to i64
  %90 = ptrtoint ptr %88 to i64
  %91 = sub i64 %89, %90
  %92 = icmp slt i64 %91, 65
  br i1 %92, label %93, label %callTM.exit

93:                                               ; preds = %61
  call void @luaD_growstack(ptr noundef nonnull %0, i32 noundef 4) #9
  %.pre.i = load ptr, ptr %64, align 8, !tbaa !33
  br label %callTM.exit

callTM.exit:                                      ; preds = %61, %93
  %94 = phi ptr [ %88, %61 ], [ %.pre.i, %93 ]
  %95 = getelementptr inbounds nuw i8, ptr %94, i64 64
  store ptr %95, ptr %64, align 8, !tbaa !33
  call void @luaD_call(ptr noundef nonnull %0, ptr noundef %94, i32 noundef 0) #9
  br label %.thread60

96:                                               ; preds = %57
  %97 = load i64, ptr %.4, align 8, !tbaa !9
  store i64 %97, ptr %5, align 8, !tbaa !9
  store i32 %59, ptr %7, align 8, !tbaa !4
  %98 = add nuw nsw i32 %.04473, 1
  %exitcond.not = icmp eq i32 %98, 100
  br i1 %exitcond.not, label %99, label %8, !llvm.loop !36

99:                                               ; preds = %96
  call void (ptr, ptr, ...) @luaG_runerror(ptr noundef %0, ptr noundef nonnull @.str.4) #9
  br label %.thread60

.thread60:                                        ; preds = %.thread, %41, %46, %50, %callTM.exit, %99
  call void @llvm.lifetime.end.p0(i64 16, ptr nonnull %5) #9
  ret void
}